target datalayout = "e-m:e-p270:32:32-p271:32:32-p272:64:64-i64:64-i128:128-f80:128-n8:16:32:64-S128"
target triple = "x86_64-pc-linux-gnu"

%struct.object = type { i32, %struct.object_id }
%struct.object_id = type { [32 x i8], i32 }
%struct.commit = type { %struct.object, i64, ptr, ptr, i32 }

@alloc_commit_index.parsed_commits_count = internal global i32 0, align 4

; Function Attrs: nounwind uwtable
define internal i32 @alloc_commit_index() #0 {
  %1 = load i32, ptr @alloc_commit_index.parsed_commits_count, align 4, !tbaa !66
  %2 = add i32 %1, 1
  store i32 %2, ptr @alloc_commit_index.parsed_commits_count, align 4, !tbaa !66
  ret i32 %1
}

; Function Attrs: nounwind uwtable
define dso_local void @init_commit_node(ptr noundef %0) #0 {
  %2 = alloca ptr, align 8
  store ptr %0, ptr %2, align 8, !tbaa !59
  %3 = load ptr, ptr %2, align 8, !tbaa !59
  %4 = getelementptr inbounds nuw %struct.commit, ptr %3, i32 0, i32 0
  %5 = load i32, ptr %4, align 8
  %6 = and i32 %5, -15
  %7 = or i32 %6, 2
  store i32 %7, ptr %4, align 8
  %8 = call i32 @alloc_commit_index()
  %9 = load ptr, ptr %2, align 8, !tbaa !59
  %10 = getelementptr inbounds nuw %struct.commit, ptr %9, i32 0, i32 4
  store i32 %8, ptr %10, align 8, !tbaa !61
  ret void
}