; Function Attrs: mustprogress nofree norecurse nosync nounwind willreturn memory(readwrite, inaccessiblemem: none) uwtable
define dso_local void @init_commit_node(ptr noundef captures(none) initializes((64, 68)) %0) local_unnamed_addr #3 {
  %2 = load i32, ptr %0, align 8
  %3 = and i32 %2, -15
  %4 = or disjoint i32 %3, 2
  store i32 %4, ptr %0, align 8
  %5 = load i32, ptr @alloc_commit_index.parsed_commits_count, align 4, !tbaa !48
  %6 = add i32 %5, 1
  store i32 %6, ptr @alloc_commit_index.parsed_commits_count, align 4, !tbaa !48
  %7 = getelementptr inbounds nuw i8, ptr %0, i64 64
  store i32 %5, ptr %7, align 8, !tbaa !49
  ret void
}